target datalayout = "e-m:e-p270:32:32-p271:32:32-p272:64:64-i64:64-i128:128-f80:128-n8:16:32:64-S128"
target triple = "x86_64-pc-linux-gnu"

%struct.ZStoreBarrierEntry = type { ptr, i64 }
%class.ZStoreBarrierBuffer = type { [32 x %struct.ZStoreBarrierEntry], i64, i64, %class.ZLock, [32 x i64], i64 }
%class.ZLock = type { %class.PlatformMutex }
%class.PlatformMutex = type { %union.pthread_mutex_t }
%union.pthread_mutex_t = type { %struct.__pthread_mutex_s }
%struct.__pthread_mutex_s = type { i32, i32, i32, i32, i32, i16, i16, %struct.__pthread_internal_list }
%struct.__pthread_internal_list = type { ptr, ptr }

@.str = private unnamed_addr constant [41 x i8] c"ZStoreBarrierBuffer: error when flushing\00", align 1
@.str.4 = private unnamed_addr constant [33 x i8] c" _last_processed_color: 0x%016lx\00", align 1
@.str.5 = private unnamed_addr constant [33 x i8] c" _last_installed_color: 0x%016lx\00", align 1
@.str.6 = private unnamed_addr constant [50 x i8] c" [%2d]: base: 0x%016lx p: 0x%016lx prev: 0x%016lx\00", align 1

; Function Attrs: mustprogress nounwind uwtable
define linkonce_odr hidden noundef i64 @_Z6untype8zpointer(i64 noundef %0) #1 comdat {
  %2 = alloca i64, align 8
  store i64 %0, ptr %2, align 8
  %3 = load i64, ptr %2, align 8
  ret i64 %3
}

; Function Attrs: mustprogress nounwind uwtable
define linkonce_odr hidden noundef i64 @_Z3p2iPVKv(ptr noundef %0) #1 comdat {
  %2 = alloca ptr, align 8
  store ptr %0, ptr %2, align 8
  %3 = load ptr, ptr %2, align 8
  %4 = ptrtoint ptr %3 to i64
  ret i64 %4
}

; Function Attrs: mustprogress nounwind uwtable
define linkonce_odr hidden noundef i64 @_Z6untype15zaddress_unsafe(i64 noundef %0) #1 comdat {
  %2 = alloca i64, align 8
  store i64 %0, ptr %2, align 8
  %3 = load i64, ptr %2, align 8
  ret i64 %3
}

; Function Attrs: mustprogress nounwind uwtable
define linkonce_odr hidden noundef i64 @_ZNK19ZStoreBarrierBuffer7currentEv(ptr noundef nonnull align 8 dereferenceable(832) %0) #1 comdat align 2 {
  %2 = alloca ptr, align 8
  store ptr %0, ptr %2, align 8
  %3 = load ptr, ptr %2, align 8
  %4 = getelementptr inbounds %class.ZStoreBarrierBuffer, ptr %3, i32 0, i32 5
  %5 = load i64, ptr %4, align 8
  %6 = udiv i64 %5, 16
  ret i64 %6
}

; Function Attrs: mustprogress nounwind uwtable
define hidden void @_ZN19ZStoreBarrierBuffer8on_errorEP12outputStream(ptr noundef nonnull align 8 dereferenceable(832) %0, ptr noundef %1) #1 align 2 {
  %3 = alloca ptr, align 8
  %4 = alloca ptr, align 8
  %5 = alloca i32, align 4
  store ptr %0, ptr %3, align 8
  store ptr %1, ptr %4, align 8
  %6 = load ptr, ptr %3, align 8
  %7 = load ptr, ptr %4, align 8
  call void (ptr, ptr, ...) @_ZN12outputStream8print_crEPKcz(ptr noundef nonnull align 8 dereferenceable(56) %7, ptr noundef @.str)
  %8 = load ptr, ptr %4, align 8
  %9 = getelementptr inbounds %class.ZStoreBarrierBuffer, ptr %6, i32 0, i32 1
  %10 = load i64, ptr %9, align 8
  call void (ptr, ptr, ...) @_ZN12outputStream8print_crEPKcz(ptr noundef nonnull align 8 dereferenceable(56) %8, ptr noundef @.str.4, i64 noundef %10)
  %11 = load ptr, ptr %4, align 8
  %12 = getelementptr inbounds %class.ZStoreBarrierBuffer, ptr %6, i32 0, i32 2
  %13 = load i64, ptr %12, align 8
  call void (ptr, ptr, ...) @_ZN12outputStream8print_crEPKcz(ptr noundef nonnull align 8 dereferenceable(56) %11, ptr noundef @.str.5, i64 noundef %13)
  %14 = call noundef i64 @_ZNK19ZStoreBarrierBuffer7currentEv(ptr noundef nonnull align 8 dereferenceable(832) %6)
  %15 = trunc i64 %14 to i32
  store i32 %15, ptr %5, align 4
  br label %16

16:                                               ; preds = %42, %2
  %17 = load i32, ptr %5, align 4
  %18 = icmp slt i32 %17, 32
  br i1 %18, label %19, label %45

19:                                               ; preds = %16
  %20 = load ptr, ptr %4, align 8
  %21 = load i32, ptr %5, align 4
  %22 = getelementptr inbounds %class.ZStoreBarrierBuffer, ptr %6, i32 0, i32 4
  %23 = load i32, ptr %5, align 4
  %24 = sext i32 %23 to i64
  %25 = getelementptr inbounds [32 x i64], ptr %22, i64 0, i64 %24
  %26 = load i64, ptr %25, align 8
  %27 = call noundef i64 @_Z6untype15zaddress_unsafe(i64 noundef %26)
  %28 = getelementptr inbounds %class.ZStoreBarrierBuffer, ptr %6, i32 0, i32 0
  %29 = load i32, ptr %5, align 4
  %30 = sext i32 %29 to i64
  %31 = getelementptr inbounds [32 x %struct.ZStoreBarrierEntry], ptr %28, i64 0, i64 %30
  %32 = getelementptr inbounds %struct.ZStoreBarrierEntry, ptr %31, i32 0, i32 0
  %33 = load ptr, ptr %32, align 8
  %34 = call noundef i64 @_Z3p2iPVKv(ptr noundef %33)
  %35 = getelementptr inbounds %class.ZStoreBarrierBuffer, ptr %6, i32 0, i32 0
  %36 = load i32, ptr %5, align 4
  %37 = sext i32 %36 to i64
  %38 = getelementptr inbounds [32 x %struct.ZStoreBarrierEntry], ptr %35, i64 0, i64 %37
  %39 = getelementptr inbounds %struct.ZStoreBarrierEntry, ptr %38, i32 0, i32 1
  %40 = load i64, ptr %39, align 8
  %41 = call noundef i64 @_Z6untype8zpointer(i64 noundef %40)
  call void (ptr, ptr, ...) @_ZN12outputStream8print_crEPKcz(ptr noundef nonnull align 8 dereferenceable(56) %20, ptr noundef @.str.6, i32 noundef %21, i64 noundef %27, i64 noundef %34, i64 noundef %41)
  br label %42

42:                                               ; preds = %19
  %43 = load i32, ptr %5, align 4
  %44 = add nsw i32 %43, 1
  store i32 %44, ptr %5, align 4
  br label %16, !llvm.loop !9

45:                                               ; preds = %16
  ret void
}