; Function Attrs: mustprogress nounwind uwtable
define hidden void @_ZN19ZStoreBarrierBuffer8on_errorEP12outputStream(ptr nocapture noundef nonnull readonly align 8 dereferenceable(832) %0, ptr noundef nonnull %1) local_unnamed_addr #1 align 2 {
  tail call void (ptr, ptr, ...) @_ZN12outputStream8print_crEPKcz(ptr noundef nonnull align 8 dereferenceable(56) %1, ptr noundef nonnull @.str) #13
  %3 = getelementptr inbounds i8, ptr %0, i64 512
  %4 = load i64, ptr %3, align 8
  tail call void (ptr, ptr, ...) @_ZN12outputStream8print_crEPKcz(ptr noundef nonnull align 8 dereferenceable(56) %1, ptr noundef nonnull @.str.4, i64 noundef %4) #13
  %5 = getelementptr inbounds i8, ptr %0, i64 520
  %6 = load i64, ptr %5, align 8
  tail call void (ptr, ptr, ...) @_ZN12outputStream8print_crEPKcz(ptr noundef nonnull align 8 dereferenceable(56) %1, ptr noundef nonnull @.str.5, i64 noundef %6) #13
  %7 = getelementptr inbounds i8, ptr %0, i64 824
  %8 = load i64, ptr %7, align 8
  %9 = lshr i64 %8, 4
  %10 = trunc i64 %9 to i32
  %11 = icmp slt i32 %10, 32
  br i1 %11, label %.lr.ph, label %._crit_edge

.lr.ph:                                           ; preds = %2
  %12 = getelementptr inbounds i8, ptr %0, i64 568
  %sext = shl i64 %9, 32
  %13 = ashr exact i64 %sext, 32
  br label %14

14:                                               ; preds = %.lr.ph, %14
  %indvars.iv = phi i64 [ %13, %.lr.ph ], [ %indvars.iv.next, %14 ]
  %15 = getelementptr inbounds [32 x i64], ptr %12, i64 0, i64 %indvars.iv
  %16 = load i64, ptr %15, align 8
  %17 = getelementptr inbounds [32 x %struct.ZStoreBarrierEntry], ptr %0, i64 0, i64 %indvars.iv
  %18 = load ptr, ptr %17, align 8
  %19 = ptrtoint ptr %18 to i64
  %20 = getelementptr inbounds i8, ptr %17, i64 8
  %21 = load i64, ptr %20, align 8
  %22 = trunc nsw i64 %indvars.iv to i32
  tail call void (ptr, ptr, ...) @_ZN12outputStream8print_crEPKcz(ptr noundef nonnull align 8 dereferenceable(56) %1, ptr noundef nonnull @.str.6, i32 noundef %22, i64 noundef %16, i64 noundef %19, i64 noundef %21) #13
  %indvars.iv.next = add nsw i64 %indvars.iv, 1
  %23 = and i64 %indvars.iv.next, 4294967295
  %exitcond.not = icmp eq i64 %23, 32
  br i1 %exitcond.not, label %._crit_edge, label %14, !llvm.loop !11

._crit_edge:                                      ; preds = %14, %2
  ret void
}